target datalayout = "e-m:e-p270:32:32-p271:32:32-p272:64:64-i64:64-i128:128-f80:128-n8:16:32:64-S128"
target triple = "x86_64-pc-linux-gnu"

@.str.16 = private unnamed_addr constant [12 x i8] c"%s key size\00", align 1

; Function Attrs: nounwind uwtable
define hidden i32 @mbedtls_x509_key_size_helper(ptr noundef %0, i64 noundef %1, ptr noundef %2) #0 {
  %4 = alloca i32, align 4
  %5 = alloca ptr, align 8
  %6 = alloca i64, align 8
  %7 = alloca ptr, align 8
  %8 = alloca ptr, align 8
  %9 = alloca i64, align 8
  %10 = alloca i32, align 4
  %11 = alloca i32, align 4
  store ptr %0, ptr %5, align 8, !tbaa !9
  store i64 %1, ptr %6, align 8, !tbaa !24
  store ptr %2, ptr %7, align 8, !tbaa !9
  call void @llvm.lifetime.start.p0(i64 8, ptr %8) #9
  %12 = load ptr, ptr %5, align 8, !tbaa !9
  store ptr %12, ptr %8, align 8, !tbaa !9
  call void @llvm.lifetime.start.p0(i64 8, ptr %9) #9
  %13 = load i64, ptr %6, align 8, !tbaa !24
  store i64 %13, ptr %9, align 8, !tbaa !24
  call void @llvm.lifetime.start.p0(i64 4, ptr %10) #9
  store i32 -110, ptr %10, align 4, !tbaa !13
  %14 = load ptr, ptr %8, align 8, !tbaa !9
  %15 = load i64, ptr %9, align 8, !tbaa !24
  %16 = load ptr, ptr %7, align 8, !tbaa !9
  %17 = call i32 (ptr, i64, ptr, ...) @snprintf(ptr noundef %14, i64 noundef %15, ptr noundef @.str.16, ptr noundef %16) #9
  store i32 %17, ptr %10, align 4, !tbaa !13
  br label %18

18:                                               ; preds = %3
  %19 = load i32, ptr %10, align 4, !tbaa !13
  %20 = icmp slt i32 %19, 0
  br i1 %20, label %26, label %21

21:                                               ; preds = %18
  %22 = load i32, ptr %10, align 4, !tbaa !13
  %23 = sext i32 %22 to i64
  %24 = load i64, ptr %9, align 8, !tbaa !24
  %25 = icmp uge i64 %23, %24
  br i1 %25, label %26, label %27

26:                                               ; preds = %21, %18
  store i32 -10624, ptr %4, align 4
  store i32 1, ptr %11, align 4
  br label %38

27:                                               ; preds = %21
  %28 = load i32, ptr %10, align 4, !tbaa !13
  %29 = sext i32 %28 to i64
  %30 = load i64, ptr %9, align 8, !tbaa !24
  %31 = sub i64 %30, %29
  store i64 %31, ptr %9, align 8, !tbaa !24
  %32 = load i32, ptr %10, align 4, !tbaa !13
  %33 = sext i32 %32 to i64
  %34 = load ptr, ptr %8, align 8, !tbaa !9
  %35 = getelementptr inbounds nuw i8, ptr %34, i64 %33
  store ptr %35, ptr %8, align 8, !tbaa !9
  br label %36

36:                                               ; preds = %27
  br label %37

37:                                               ; preds = %36
  store i32 0, ptr %4, align 4
  store i32 1, ptr %11, align 4
  br label %38

38:                                               ; preds = %37, %26
  call void @llvm.lifetime.end.p0(i64 4, ptr %10) #9
  call void @llvm.lifetime.end.p0(i64 8, ptr %9) #9
  call void @llvm.lifetime.end.p0(i64 8, ptr %8) #9
  %39 = load i32, ptr %4, align 4
  ret i32 %39
}