; Function Attrs: nofree nounwind uwtable
define hidden range(i32 -10624, 1) i32 @mbedtls_x509_key_size_helper(ptr noundef writeonly captures(none) %0, i64 noundef %1, ptr noundef %2) local_unnamed_addr #7 {
  %4 = tail call i32 (ptr, i64, ptr, ...) @snprintf(ptr noundef %0, i64 noundef %1, ptr noundef nonnull @.str.16, ptr noundef %2) #13
  %5 = icmp sgt i32 %4, -1
  %6 = zext nneg i32 %4 to i64
  %.not = icmp ugt i64 %1, %6
  %or.cond = select i1 %5, i1 %.not, i1 false
  %.0 = select i1 %or.cond, i32 0, i32 -10624
  ret i32 %.0
}